ARM GAS  C:\Users\lenovo\AppData\Local\Temp\cc9xEv65.s 			page 1


   1              		.cpu cortex-m4
   2              		.arch armv7e-m
   3              		.fpu fpv4-sp-d16
   4              		.eabi_attribute 27, 1
   5              		.eabi_attribute 28, 1
   6              		.eabi_attribute 20, 1
   7              		.eabi_attribute 21, 1
   8              		.eabi_attribute 23, 3
   9              		.eabi_attribute 24, 1
  10              		.eabi_attribute 25, 1
  11              		.eabi_attribute 26, 1
  12              		.eabi_attribute 30, 1
  13              		.eabi_attribute 34, 1
  14              		.eabi_attribute 18, 4
  15              		.file	"shoot.c"
  16              		.text
  17              	.Ltext0:
  18              		.cfi_sections	.debug_frame
  19              		.file 1 "application/shoot/shoot.c"
  20              		.section	.rodata.ShootInit.str1.4,"aMS",%progbits,1
  21              		.align	2
  22              	.LC0:
  23 0000 73686F6F 		.ascii	"shoot_feed\000"
  23      745F6665 
  23      656400
  24 000b 00       		.align	2
  25              	.LC1:
  26 000c 73686F6F 		.ascii	"shoot_cmd\000"
  26      745F636D 
  26      6400
  27              		.section	.text.ShootInit,"ax",%progbits
  28              		.align	1
  29              		.global	ShootInit
  30              		.syntax unified
  31              		.thumb
  32              		.thumb_func
  34              	ShootInit:
  35              	.LFB271:
   1:application/shoot/shoot.c **** #include "shoot.h"
   2:application/shoot/shoot.c **** #include "robot_def.h"
   3:application/shoot/shoot.c **** 
   4:application/shoot/shoot.c **** #include "dji_motor.h"
   5:application/shoot/shoot.c **** #include "message_center.h"
   6:application/shoot/shoot.c **** #include "bsp_dwt.h"
   7:application/shoot/shoot.c **** #include "general_def.h"
   8:application/shoot/shoot.c **** 
   9:application/shoot/shoot.c **** static Shoot_Config_s *shoot_config;
  10:application/shoot/shoot.c **** 
  11:application/shoot/shoot.c **** /* å¯¹äºŽåŒå‘å°„æœºæž„çš„æœºå™¨äºº,å°†ä¸‹é¢çš„æ•°æ®å°è£…æˆç»“æž„ä½“å³å¯,ç”Ÿæˆä¸¤ä»½shootåº
  12:application/shoot/shoot.c **** static DJIMotorInstance *friction_lf, *friction_rf, *loader; // æ‹¨ç›˜ç”µæœº
  13:application/shoot/shoot.c **** static DJIMotorInstance *friction_lb, *friction_rb;
  14:application/shoot/shoot.c **** // static servo_instance *lid; éœ€è¦å¢žåŠ å¼¹èˆ±ç›–
  15:application/shoot/shoot.c **** 
  16:application/shoot/shoot.c **** static Publisher_t *shoot_pub;
  17:application/shoot/shoot.c **** static Shoot_Ctrl_Cmd_s shoot_cmd_recv; // æ¥è‡ªcmdçš„å‘å°„æŽ§åˆ¶ä¿¡æ¯
  18:application/shoot/shoot.c **** static Subscriber_t *shoot_sub;
  19:application/shoot/shoot.c **** static Shoot_Upload_Data_s shoot_feedback_data; // æ¥è‡ªcmdçš„å‘å°„æŽ§åˆ¶ä¿¡æ¯
ARM GAS  C:\Users\lenovo\AppData\Local\Temp\cc9xEv65.s 			page 2


  20:application/shoot/shoot.c **** 
  21:application/shoot/shoot.c **** // dwtå®šæ—¶,è®¡ç®—å†·å´ç”¨
  22:application/shoot/shoot.c **** static float hibernate_time = 0, dead_time = 0;
  23:application/shoot/shoot.c **** // å¡å¼¹æ—¶é—´
  24:application/shoot/shoot.c **** static float lock_time = 0;
  25:application/shoot/shoot.c **** 
  26:application/shoot/shoot.c **** #define ONE_BULLET_DELTA_ANGLE 15.0f    // å‘å°„ä¸€å‘å¼¹ä¸¸æ‹¨ç›˜è½¬åŠ¨çš„è·ç¦»,ç”±æœºæ¢°è®¾è®¡å
  27:application/shoot/shoot.c **** #define REDUCTION_RATIO_LOADER 36.0f // 2006æ‹¨ç›˜ç”µæœºçš„å‡é€Ÿæ¯”,è‹±é›„éœ€è¦ä¿®æ”¹ä¸º3508çš„19
  28:application/shoot/shoot.c **** #define REVERSE_TIME 400
  29:application/shoot/shoot.c **** 
  30:application/shoot/shoot.c **** void ShootInit() 
  31:application/shoot/shoot.c **** {
  36              		.loc 1 31 1 view -0
  37              		.cfi_startproc
  38              		@ args = 0, pretend = 0, frame = 0
  39              		@ frame_needed = 0, uses_anonymous_args = 0
  40 0000 10B5     		push	{r4, lr}
  41              	.LCFI0:
  42              		.cfi_def_cfa_offset 8
  43              		.cfi_offset 4, -8
  44              		.cfi_offset 14, -4
  32:application/shoot/shoot.c ****     shoot_config = ShootConfigFeed();
  45              		.loc 1 32 5 view .LVU1
  46              		.loc 1 32 20 is_stmt 0 view .LVU2
  47 0002 FFF7FEFF 		bl	ShootConfigFeed
  48              	.LVL0:
  49              		.loc 1 32 18 discriminator 1 view .LVU3
  50 0006 284C     		ldr	r4, .L5
  51 0008 2060     		str	r0, [r4]
  33:application/shoot/shoot.c **** 
  34:application/shoot/shoot.c ****     // å·¦å‰æ‘©æ“¦è½®
  35:application/shoot/shoot.c ****     shoot_config->friction_motor_config.can_init_config.tx_id = shoot_config->friction_motor_id[MOT
  52              		.loc 1 35 5 is_stmt 1 view .LVU4
  53              		.loc 1 35 96 is_stmt 0 view .LVU5
  54 000a 90F87C31 		ldrb	r3, [r0, #380]	@ zero_extendqisi2
  55              		.loc 1 35 63 view .LVU6
  56 000e C0F8A830 		str	r3, [r0, #168]
  36:application/shoot/shoot.c ****     shoot_config->friction_motor_config.controller_setting_init_config.motor_reverse_flag = shoot_c
  57              		.loc 1 36 5 is_stmt 1 view .LVU7
  58              		.loc 1 36 134 is_stmt 0 view .LVU8
  59 0012 90F88031 		ldrb	r3, [r0, #384]	@ zero_extendqisi2
  60              		.loc 1 36 91 view .LVU9
  61 0016 80F89A30 		strb	r3, [r0, #154]
  37:application/shoot/shoot.c ****     friction_lf = DJIMotorInit(&shoot_config->friction_motor_config);
  62              		.loc 1 37 5 is_stmt 1 view .LVU10
  63              		.loc 1 37 19 is_stmt 0 view .LVU11
  64 001a 0430     		adds	r0, r0, #4
  65 001c FFF7FEFF 		bl	DJIMotorInit
  66              	.LVL1:
  67              		.loc 1 37 17 discriminator 1 view .LVU12
  68 0020 224B     		ldr	r3, .L5+4
  69 0022 1860     		str	r0, [r3]
  38:application/shoot/shoot.c **** 
  39:application/shoot/shoot.c ****     // å³å‰æ‘©æ“¦è½®
  40:application/shoot/shoot.c ****     shoot_config->friction_motor_config.can_init_config.tx_id = shoot_config->friction_motor_id[MOT
  70              		.loc 1 40 5 is_stmt 1 view .LVU13
  71              		.loc 1 40 77 is_stmt 0 view .LVU14
ARM GAS  C:\Users\lenovo\AppData\Local\Temp\cc9xEv65.s 			page 3


  72 0024 2068     		ldr	r0, [r4]
  73              		.loc 1 40 96 view .LVU15
  74 0026 90F87D31 		ldrb	r3, [r0, #381]	@ zero_extendqisi2
  75              		.loc 1 40 63 view .LVU16
  76 002a C0F8A830 		str	r3, [r0, #168]
  41:application/shoot/shoot.c ****     shoot_config->friction_motor_config.controller_setting_init_config.motor_reverse_flag = shoot_c
  77              		.loc 1 41 5 is_stmt 1 view .LVU17
  78              		.loc 1 41 134 is_stmt 0 view .LVU18
  79 002e 90F88131 		ldrb	r3, [r0, #385]	@ zero_extendqisi2
  80              		.loc 1 41 91 view .LVU19
  81 0032 80F89A30 		strb	r3, [r0, #154]
  42:application/shoot/shoot.c ****     friction_rf = DJIMotorInit(&shoot_config->friction_motor_config);
  82              		.loc 1 42 5 is_stmt 1 view .LVU20
  83              		.loc 1 42 19 is_stmt 0 view .LVU21
  84 0036 0430     		adds	r0, r0, #4
  85 0038 FFF7FEFF 		bl	DJIMotorInit
  86              	.LVL2:
  87              		.loc 1 42 17 discriminator 1 view .LVU22
  88 003c 1C4B     		ldr	r3, .L5+8
  89 003e 1860     		str	r0, [r3]
  43:application/shoot/shoot.c **** 
  44:application/shoot/shoot.c ****     switch (shoot_config->shoot_type)
  90              		.loc 1 44 5 is_stmt 1 view .LVU23
  91              		.loc 1 44 25 is_stmt 0 view .LVU24
  92 0040 2068     		ldr	r0, [r4]
  93 0042 0378     		ldrb	r3, [r0]	@ zero_extendqisi2
  94              		.loc 1 44 5 view .LVU25
  95 0044 022B     		cmp	r3, #2
  96 0046 13D0     		beq	.L4
  97              	.L2:
  45:application/shoot/shoot.c ****     {
  46:application/shoot/shoot.c ****     case THREE_SHOOT:
  47:application/shoot/shoot.c ****         break;
  48:application/shoot/shoot.c ****     case FOUR_SHOOT:
  49:application/shoot/shoot.c ****         // å·¦åŽæ‘©æ“¦è½®
  50:application/shoot/shoot.c ****         shoot_config->friction_motor_config.can_init_config.tx_id = shoot_config->friction_motor_id
  51:application/shoot/shoot.c ****         shoot_config->friction_motor_config.controller_setting_init_config.motor_reverse_flag = sho
  52:application/shoot/shoot.c ****         friction_lb = DJIMotorInit(&shoot_config->friction_motor_config);
  53:application/shoot/shoot.c ****         // å³åŽæ‘©æ“¦è½®
  54:application/shoot/shoot.c ****         shoot_config->friction_motor_config.can_init_config.tx_id = shoot_config->friction_motor_id
  55:application/shoot/shoot.c ****         shoot_config->friction_motor_config.controller_setting_init_config.motor_reverse_flag = sho
  56:application/shoot/shoot.c ****         friction_rb = DJIMotorInit(&shoot_config->friction_motor_config);        
  57:application/shoot/shoot.c ****         break;
  58:application/shoot/shoot.c ****     default:
  59:application/shoot/shoot.c ****         break;
  60:application/shoot/shoot.c ****     }
  61:application/shoot/shoot.c **** 
  62:application/shoot/shoot.c ****     // æ‹¨ç›˜ç”µæœº
  63:application/shoot/shoot.c ****     loader = DJIMotorInit(&shoot_config->loader_motor_config);
  98              		.loc 1 63 5 is_stmt 1 view .LVU26
  99              		.loc 1 63 40 is_stmt 0 view .LVU27
 100 0048 174B     		ldr	r3, .L5
 101 004a 1868     		ldr	r0, [r3]
 102              		.loc 1 63 14 view .LVU28
 103 004c C030     		adds	r0, r0, #192
 104 004e FFF7FEFF 		bl	DJIMotorInit
 105              	.LVL3:
ARM GAS  C:\Users\lenovo\AppData\Local\Temp\cc9xEv65.s 			page 4


 106              		.loc 1 63 12 discriminator 1 view .LVU29
 107 0052 184B     		ldr	r3, .L5+12
 108 0054 1860     		str	r0, [r3]
  64:application/shoot/shoot.c **** 
  65:application/shoot/shoot.c ****     shoot_pub = PubRegister("shoot_feed", sizeof(Shoot_Upload_Data_s));
 109              		.loc 1 65 5 is_stmt 1 view .LVU30
 110              		.loc 1 65 17 is_stmt 0 view .LVU31
 111 0056 0021     		movs	r1, #0
 112 0058 1748     		ldr	r0, .L5+16
 113 005a FFF7FEFF 		bl	PubRegister
 114              	.LVL4:
 115              		.loc 1 65 15 discriminator 1 view .LVU32
 116 005e 174B     		ldr	r3, .L5+20
 117 0060 1860     		str	r0, [r3]
  66:application/shoot/shoot.c ****     shoot_sub = SubRegister("shoot_cmd", sizeof(Shoot_Ctrl_Cmd_s));
 118              		.loc 1 66 5 is_stmt 1 view .LVU33
 119              		.loc 1 66 17 is_stmt 0 view .LVU34
 120 0062 0A21     		movs	r1, #10
 121 0064 1648     		ldr	r0, .L5+24
 122 0066 FFF7FEFF 		bl	SubRegister
 123              	.LVL5:
 124              		.loc 1 66 15 discriminator 1 view .LVU35
 125 006a 164B     		ldr	r3, .L5+28
 126 006c 1860     		str	r0, [r3]
  67:application/shoot/shoot.c **** }
 127              		.loc 1 67 1 view .LVU36
 128 006e 10BD     		pop	{r4, pc}
 129              	.L4:
  50:application/shoot/shoot.c ****         shoot_config->friction_motor_config.controller_setting_init_config.motor_reverse_flag = sho
 130              		.loc 1 50 9 is_stmt 1 view .LVU37
  50:application/shoot/shoot.c ****         shoot_config->friction_motor_config.controller_setting_init_config.motor_reverse_flag = sho
 131              		.loc 1 50 100 is_stmt 0 view .LVU38
 132 0070 90F87E31 		ldrb	r3, [r0, #382]	@ zero_extendqisi2
  50:application/shoot/shoot.c ****         shoot_config->friction_motor_config.controller_setting_init_config.motor_reverse_flag = sho
 133              		.loc 1 50 67 view .LVU39
 134 0074 C0F8A830 		str	r3, [r0, #168]
  51:application/shoot/shoot.c ****         friction_lb = DJIMotorInit(&shoot_config->friction_motor_config);
 135              		.loc 1 51 9 is_stmt 1 view .LVU40
  51:application/shoot/shoot.c ****         friction_lb = DJIMotorInit(&shoot_config->friction_motor_config);
 136              		.loc 1 51 138 is_stmt 0 view .LVU41
 137 0078 90F88231 		ldrb	r3, [r0, #386]	@ zero_extendqisi2
  51:application/shoot/shoot.c ****         friction_lb = DJIMotorInit(&shoot_config->friction_motor_config);
 138              		.loc 1 51 95 view .LVU42
 139 007c 80F89A30 		strb	r3, [r0, #154]
  52:application/shoot/shoot.c ****         // å³åŽæ‘©æ“¦è½®
 140              		.loc 1 52 9 is_stmt 1 view .LVU43
  52:application/shoot/shoot.c ****         // å³åŽæ‘©æ“¦è½®
 141              		.loc 1 52 23 is_stmt 0 view .LVU44
 142 0080 0430     		adds	r0, r0, #4
 143 0082 FFF7FEFF 		bl	DJIMotorInit
 144              	.LVL6:
  52:application/shoot/shoot.c ****         // å³åŽæ‘©æ“¦è½®
 145              		.loc 1 52 21 discriminator 1 view .LVU45
 146 0086 104B     		ldr	r3, .L5+32
 147 0088 1860     		str	r0, [r3]
  54:application/shoot/shoot.c ****         shoot_config->friction_motor_config.controller_setting_init_config.motor_reverse_flag = sho
 148              		.loc 1 54 9 is_stmt 1 view .LVU46
ARM GAS  C:\Users\lenovo\AppData\Local\Temp\cc9xEv65.s 			page 5


  54:application/shoot/shoot.c ****         shoot_config->friction_motor_config.controller_setting_init_config.motor_reverse_flag = sho
 149              		.loc 1 54 81 is_stmt 0 view .LVU47
 150 008a 2068     		ldr	r0, [r4]
  54:application/shoot/shoot.c ****         shoot_config->friction_motor_config.controller_setting_init_config.motor_reverse_flag = sho
 151              		.loc 1 54 100 view .LVU48
 152 008c 90F87F31 		ldrb	r3, [r0, #383]	@ zero_extendqisi2
  54:application/shoot/shoot.c ****         shoot_config->friction_motor_config.controller_setting_init_config.motor_reverse_flag = sho
 153              		.loc 1 54 67 view .LVU49
 154 0090 C0F8A830 		str	r3, [r0, #168]
  55:application/shoot/shoot.c ****         friction_rb = DJIMotorInit(&shoot_config->friction_motor_config);        
 155              		.loc 1 55 9 is_stmt 1 view .LVU50
  55:application/shoot/shoot.c ****         friction_rb = DJIMotorInit(&shoot_config->friction_motor_config);        
 156              		.loc 1 55 138 is_stmt 0 view .LVU51
 157 0094 90F88331 		ldrb	r3, [r0, #387]	@ zero_extendqisi2
  55:application/shoot/shoot.c ****         friction_rb = DJIMotorInit(&shoot_config->friction_motor_config);        
 158              		.loc 1 55 95 view .LVU52
 159 0098 80F89A30 		strb	r3, [r0, #154]
  56:application/shoot/shoot.c ****         break;
 160              		.loc 1 56 9 is_stmt 1 view .LVU53
  56:application/shoot/shoot.c ****         break;
 161              		.loc 1 56 23 is_stmt 0 view .LVU54
 162 009c 0430     		adds	r0, r0, #4
 163 009e FFF7FEFF 		bl	DJIMotorInit
 164              	.LVL7:
  56:application/shoot/shoot.c ****         break;
 165              		.loc 1 56 21 discriminator 1 view .LVU55
 166 00a2 0A4B     		ldr	r3, .L5+36
 167 00a4 1860     		str	r0, [r3]
  57:application/shoot/shoot.c ****     default:
 168              		.loc 1 57 9 is_stmt 1 view .LVU56
 169 00a6 CFE7     		b	.L2
 170              	.L6:
 171              		.align	2
 172              	.L5:
 173 00a8 00000000 		.word	shoot_config
 174 00ac 00000000 		.word	friction_lf
 175 00b0 00000000 		.word	friction_rf
 176 00b4 00000000 		.word	loader
 177 00b8 00000000 		.word	.LC0
 178 00bc 00000000 		.word	shoot_pub
 179 00c0 0C000000 		.word	.LC1
 180 00c4 00000000 		.word	shoot_sub
 181 00c8 00000000 		.word	friction_lb
 182 00cc 00000000 		.word	friction_rb
 183              		.cfi_endproc
 184              	.LFE271:
 186              		.global	__aeabi_i2d
 187              		.global	__aeabi_dcmpgt
 188              		.section	.text.ShootTask,"ax",%progbits
 189              		.align	1
 190              		.global	ShootTask
 191              		.syntax unified
 192              		.thumb
 193              		.thumb_func
 195              	ShootTask:
 196              	.LFB272:
  68:application/shoot/shoot.c **** 
ARM GAS  C:\Users\lenovo\AppData\Local\Temp\cc9xEv65.s 			page 6


  69:application/shoot/shoot.c **** /* æœºå™¨äººå‘å°„æœºæž„æŽ§åˆ¶æ ¸å¿ƒä»»åŠ¡ */
  70:application/shoot/shoot.c **** void ShootTask()
  71:application/shoot/shoot.c **** {
 197              		.loc 1 71 1 view -0
 198              		.cfi_startproc
 199              		@ args = 0, pretend = 0, frame = 0
 200              		@ frame_needed = 0, uses_anonymous_args = 0
 201 0000 10B5     		push	{r4, lr}
 202              	.LCFI1:
 203              		.cfi_def_cfa_offset 8
 204              		.cfi_offset 4, -8
 205              		.cfi_offset 14, -4
 206 0002 2DED028B 		vpush.64	{d8}
 207              	.LCFI2:
 208              		.cfi_def_cfa_offset 16
 209              		.cfi_offset 80, -16
 210              		.cfi_offset 81, -12
  72:application/shoot/shoot.c ****     // ä»ŽcmdèŽ·å–æŽ§åˆ¶æ•°æ®
  73:application/shoot/shoot.c ****     SubGetMessage(shoot_sub, &shoot_cmd_recv);
 211              		.loc 1 73 5 view .LVU58
 212 0006 A84C     		ldr	r4, .L40+8
 213 0008 2146     		mov	r1, r4
 214 000a A84B     		ldr	r3, .L40+12
 215 000c 1868     		ldr	r0, [r3]
 216 000e FFF7FEFF 		bl	SubGetMessage
 217              	.LVL8:
  74:application/shoot/shoot.c **** 
  75:application/shoot/shoot.c ****     // å¯¹shoot modeç­‰äºŽSHOOT_STOPçš„æƒ…å†µç‰¹æ®Šå¤„ç†,ç›´æŽ¥åœæ­¢æ‰€æœ‰ç”µæœº(ç´§æ€¥åœæ­¢)
  76:application/shoot/shoot.c ****     if (shoot_cmd_recv.shoot_mode == SHOOT_OFF || shoot_cmd_recv.shoot_mode == SHOOT_ZERO_FORCE)
 218              		.loc 1 76 5 view .LVU59
 219              		.loc 1 76 23 is_stmt 0 view .LVU60
 220 0012 2378     		ldrb	r3, [r4]	@ zero_extendqisi2
 221              		.loc 1 76 8 view .LVU61
 222 0014 012B     		cmp	r3, #1
 223 0016 5AD9     		bls	.L36
  77:application/shoot/shoot.c ****     {
  78:application/shoot/shoot.c ****         DJIMotorStop(friction_lf);
  79:application/shoot/shoot.c ****         DJIMotorStop(friction_rf);
  80:application/shoot/shoot.c ****         switch (shoot_config->shoot_type)
  81:application/shoot/shoot.c ****         {
  82:application/shoot/shoot.c ****         case THREE_SHOOT:
  83:application/shoot/shoot.c ****             break;
  84:application/shoot/shoot.c ****         case FOUR_SHOOT:
  85:application/shoot/shoot.c ****             // å·¦åŽæ‘©æ“¦è½®
  86:application/shoot/shoot.c ****             DJIMotorStop(friction_lb);
  87:application/shoot/shoot.c ****             // å³åŽæ‘©æ“¦è½®
  88:application/shoot/shoot.c ****             DJIMotorStop(friction_rb);      
  89:application/shoot/shoot.c ****             break;
  90:application/shoot/shoot.c ****         default:
  91:application/shoot/shoot.c ****             break;
  92:application/shoot/shoot.c ****         }
  93:application/shoot/shoot.c **** 
  94:application/shoot/shoot.c ****         DJIMotorStop(loader);
  95:application/shoot/shoot.c ****     }
  96:application/shoot/shoot.c ****     else // æ¢å¤è¿è¡Œ
  97:application/shoot/shoot.c ****     {
  98:application/shoot/shoot.c ****         DJIMotorEnable(friction_lf);
ARM GAS  C:\Users\lenovo\AppData\Local\Temp\cc9xEv65.s 			page 7


 224              		.loc 1 98 9 is_stmt 1 view .LVU62
 225 0018 A54B     		ldr	r3, .L40+16
 226 001a 1868     		ldr	r0, [r3]
 227 001c FFF7FEFF 		bl	DJIMotorEnable
 228              	.LVL9:
  99:application/shoot/shoot.c ****         DJIMotorEnable(friction_rf);
 229              		.loc 1 99 9 view .LVU63
 230 0020 A44B     		ldr	r3, .L40+20
 231 0022 1868     		ldr	r0, [r3]
 232 0024 FFF7FEFF 		bl	DJIMotorEnable
 233              	.LVL10:
 100:application/shoot/shoot.c ****         switch (shoot_config->shoot_type)
 234              		.loc 1 100 9 view .LVU64
 235              		.loc 1 100 29 is_stmt 0 view .LVU65
 236 0028 A34B     		ldr	r3, .L40+24
 237 002a 1B68     		ldr	r3, [r3]
 238 002c 1B78     		ldrb	r3, [r3]	@ zero_extendqisi2
 239              		.loc 1 100 9 view .LVU66
 240 002e 022B     		cmp	r3, #2
 241 0030 68D0     		beq	.L37
 242              	.L11:
 101:application/shoot/shoot.c ****         {
 102:application/shoot/shoot.c ****         case THREE_SHOOT:
 103:application/shoot/shoot.c ****             break;
 104:application/shoot/shoot.c ****         case FOUR_SHOOT:
 105:application/shoot/shoot.c ****             // å·¦åŽæ‘©æ“¦è½®
 106:application/shoot/shoot.c ****             DJIMotorEnable(friction_lb);
 107:application/shoot/shoot.c ****             // å³åŽæ‘©æ“¦è½®
 108:application/shoot/shoot.c ****             DJIMotorEnable(friction_rb);      
 109:application/shoot/shoot.c ****             break;
 110:application/shoot/shoot.c ****         default:
 111:application/shoot/shoot.c ****             break;
 112:application/shoot/shoot.c ****         }
 113:application/shoot/shoot.c **** 
 114:application/shoot/shoot.c ****         DJIMotorEnable(loader);
 243              		.loc 1 114 9 is_stmt 1 view .LVU67
 244 0032 A24B     		ldr	r3, .L40+28
 245 0034 1868     		ldr	r0, [r3]
 246 0036 FFF7FEFF 		bl	DJIMotorEnable
 247              	.LVL11:
 248              	.L10:
 115:application/shoot/shoot.c ****     }
 116:application/shoot/shoot.c **** 
 117:application/shoot/shoot.c ****     // å¦‚æžœé€Ÿåº¦è¯¯å·®è¾ƒå¤§,è¿›è¡Œå›žé€€åˆ¤æ–­
 118:application/shoot/shoot.c ****     if (fabs(loader->measure.real_current) > 5000)
 249              		.loc 1 118 5 view .LVU68
 250              		.loc 1 118 20 is_stmt 0 view .LVU69
 251 003a A04B     		ldr	r3, .L40+28
 252 003c 1B68     		ldr	r3, [r3]
 253              		.loc 1 118 9 view .LVU70
 254 003e B3F90C00 		ldrsh	r0, [r3, #12]
 255 0042 FFF7FEFF 		bl	__aeabi_i2d
 256              	.LVL12:
 257 0046 21F00041 		bic	r1, r1, #-2147483648
 258              		.loc 1 118 8 view .LVU71
 259 004a 95A3     		adr	r3, .L40
 260 004c D3E90023 		ldrd	r2, [r3]
ARM GAS  C:\Users\lenovo\AppData\Local\Temp\cc9xEv65.s 			page 8


 261 0050 FFF7FEFF 		bl	__aeabi_dcmpgt
 262              	.LVL13:
 263 0054 40B1     		cbz	r0, .L12
 119:application/shoot/shoot.c ****         lock_time++;
 264              		.loc 1 119 9 is_stmt 1 view .LVU72
 265              		.loc 1 119 18 is_stmt 0 view .LVU73
 266 0056 9A4B     		ldr	r3, .L40+32
 267 0058 D3ED007A 		vldr.32	s15, [r3]
 268 005c B7EE007A 		vmov.f32	s14, #1.0e+0
 269 0060 77EE877A 		vadd.f32	s15, s15, s14
 270 0064 C3ED007A 		vstr.32	s15, [r3]
 271              	.L12:
 120:application/shoot/shoot.c **** 
 121:application/shoot/shoot.c ****     // å¡å¼¹æ—¶é—´è¿‡é•¿è¿›è¡Œå›žé€€
 122:application/shoot/shoot.c ****     if (lock_time > REVERSE_TIME)
 272              		.loc 1 122 5 is_stmt 1 view .LVU74
 273              		.loc 1 122 19 is_stmt 0 view .LVU75
 274 0068 954B     		ldr	r3, .L40+32
 275 006a D3ED007A 		vldr.32	s15, [r3]
 276              		.loc 1 122 8 view .LVU76
 277 006e 9FED957A 		vldr.32	s14, .L40+36
 278 0072 F4EEC77A 		vcmpe.f32	s15, s14
 279 0076 F1EE10FA 		vmrs	APSR_nzcv, FPSCR
 280 007a 05DD     		ble	.L14
 123:application/shoot/shoot.c ****     {
 124:application/shoot/shoot.c ****         shoot_cmd_recv.load_mode = LOAD_REVERSE;
 281              		.loc 1 124 9 is_stmt 1 view .LVU77
 282              		.loc 1 124 34 is_stmt 0 view .LVU78
 283 007c 8A4B     		ldr	r3, .L40+8
 284 007e 0122     		movs	r2, #1
 285 0080 5A70     		strb	r2, [r3, #1]
 125:application/shoot/shoot.c ****         dead_time = 0;
 286              		.loc 1 125 9 is_stmt 1 view .LVU79
 287              		.loc 1 125 19 is_stmt 0 view .LVU80
 288 0082 914B     		ldr	r3, .L40+40
 289 0084 0022     		movs	r2, #0
 290 0086 1A60     		str	r2, [r3]	@ float
 291              	.L14:
 126:application/shoot/shoot.c ****     }
 127:application/shoot/shoot.c ****         
 128:application/shoot/shoot.c ****     // å›žé€€æ—¶é—´è¿‡é•¿åœæ­¢å›žé€€(å®Œå…¨å¡æ­»æƒ…å†µ)
 129:application/shoot/shoot.c ****     if (lock_time > REVERSE_TIME + 5)
 292              		.loc 1 129 5 is_stmt 1 view .LVU81
 293              		.loc 1 129 8 is_stmt 0 view .LVU82
 294 0088 9FED907A 		vldr.32	s14, .L40+44
 295 008c F4EEC77A 		vcmpe.f32	s15, s14
 296 0090 F1EE10FA 		vmrs	APSR_nzcv, FPSCR
 297 0094 02DD     		ble	.L16
 130:application/shoot/shoot.c ****         shoot_cmd_recv.load_mode = LOAD_STOP;
 298              		.loc 1 130 9 is_stmt 1 view .LVU83
 299              		.loc 1 130 34 is_stmt 0 view .LVU84
 300 0096 844B     		ldr	r3, .L40+8
 301 0098 0022     		movs	r2, #0
 302 009a 5A70     		strb	r2, [r3, #1]
 303              	.L16:
 131:application/shoot/shoot.c **** 
 132:application/shoot/shoot.c ****     // å¦‚æžœä¸Šä¸€æ¬¡è§¦å‘å•å‘æˆ–3å‘æŒ‡ä»¤çš„æ—¶é—´åŠ ä¸Šä¸åº”æœŸä»ç„¶å¤§äºŽå½“å‰æ—¶é—´(å°š
ARM GAS  C:\Users\lenovo\AppData\Local\Temp\cc9xEv65.s 			page 9


 133:application/shoot/shoot.c ****     // å•å‘æ¨¡å¼ä¸»è¦æä¾›ç»™èƒ½é‡æœºå…³æ¿€æ´»ä½¿ç”¨(ä»¥åŠè‹±é›„çš„å°„å‡»å¤§éƒ¨åˆ†å¤„äºŽå•å
 134:application/shoot/shoot.c ****     if (hibernate_time + dead_time > DWT_GetTimeline_ms())
 304              		.loc 1 134 5 is_stmt 1 view .LVU85
 305              		.loc 1 134 24 is_stmt 0 view .LVU86
 306 009c 8C4B     		ldr	r3, .L40+48
 307 009e 93ED008A 		vldr.32	s16, [r3]
 308 00a2 894B     		ldr	r3, .L40+40
 309 00a4 D3ED007A 		vldr.32	s15, [r3]
 310 00a8 38EE278A 		vadd.f32	s16, s16, s15
 311              		.loc 1 134 38 view .LVU87
 312 00ac FFF7FEFF 		bl	DWT_GetTimeline_ms
 313              	.LVL14:
 314              		.loc 1 134 8 discriminator 1 view .LVU88
 315 00b0 B4EEC08A 		vcmpe.f32	s16, s0
 316 00b4 F1EE10FA 		vmrs	APSR_nzcv, FPSCR
 317 00b8 00F37E81 		bgt	.L7
 135:application/shoot/shoot.c ****         return;
 136:application/shoot/shoot.c **** 
 137:application/shoot/shoot.c ****     // è‹¥ä¸åœ¨ä¼‘çœ çŠ¶æ€,æ ¹æ®robotCMDä¼ æ¥çš„æŽ§åˆ¶æ¨¡å¼è¿›è¡Œæ‹¨ç›˜ç”µæœºå‚è€ƒå€¼è®¾å®šå’
 138:application/shoot/shoot.c ****     switch (shoot_cmd_recv.load_mode)
 318              		.loc 1 138 5 is_stmt 1 view .LVU89
 319              		.loc 1 138 27 is_stmt 0 view .LVU90
 320 00bc 7A4B     		ldr	r3, .L40+8
 321 00be 5B78     		ldrb	r3, [r3, #1]	@ zero_extendqisi2
 322              		.loc 1 138 5 view .LVU91
 323 00c0 042B     		cmp	r3, #4
 324 00c2 37D8     		bhi	.L19
 325 00c4 DFE803F0 		tbb	[pc, r3]
 326              	.L21:
 327 00c8 27       		.byte	(.L25-.L21)/2
 328 00c9 AF       		.byte	(.L24-.L21)/2
 329 00ca 67       		.byte	(.L23-.L21)/2
 330 00cb 7E       		.byte	(.L22-.L21)/2
 331 00cc 95       		.byte	(.L20-.L21)/2
 332 00cd 00       		.p2align 1
 333              	.L36:
  78:application/shoot/shoot.c ****         DJIMotorStop(friction_rf);
 334              		.loc 1 78 9 is_stmt 1 view .LVU92
 335 00ce 784B     		ldr	r3, .L40+16
 336 00d0 1868     		ldr	r0, [r3]
 337 00d2 FFF7FEFF 		bl	DJIMotorStop
 338              	.LVL15:
  79:application/shoot/shoot.c ****         switch (shoot_config->shoot_type)
 339              		.loc 1 79 9 view .LVU93
 340 00d6 774B     		ldr	r3, .L40+20
 341 00d8 1868     		ldr	r0, [r3]
 342 00da FFF7FEFF 		bl	DJIMotorStop
 343              	.LVL16:
  80:application/shoot/shoot.c ****         {
 344              		.loc 1 80 9 view .LVU94
  80:application/shoot/shoot.c ****         {
 345              		.loc 1 80 29 is_stmt 0 view .LVU95
 346 00de 764B     		ldr	r3, .L40+24
 347 00e0 1B68     		ldr	r3, [r3]
 348 00e2 1B78     		ldrb	r3, [r3]	@ zero_extendqisi2
  80:application/shoot/shoot.c ****         {
 349              		.loc 1 80 9 view .LVU96
ARM GAS  C:\Users\lenovo\AppData\Local\Temp\cc9xEv65.s 			page 10


 350 00e4 022B     		cmp	r3, #2
 351 00e6 04D0     		beq	.L38
 352              	.L9:
  94:application/shoot/shoot.c ****     }
 353              		.loc 1 94 9 is_stmt 1 view .LVU97
 354 00e8 744B     		ldr	r3, .L40+28
 355 00ea 1868     		ldr	r0, [r3]
 356 00ec FFF7FEFF 		bl	DJIMotorStop
 357              	.LVL17:
 358 00f0 A3E7     		b	.L10
 359              	.L38:
  86:application/shoot/shoot.c ****             // å³åŽæ‘©æ“¦è½®
 360              		.loc 1 86 13 view .LVU98
 361 00f2 784B     		ldr	r3, .L40+52
 362 00f4 1868     		ldr	r0, [r3]
 363 00f6 FFF7FEFF 		bl	DJIMotorStop
 364              	.LVL18:
  88:application/shoot/shoot.c ****             break;
 365              		.loc 1 88 13 view .LVU99
 366 00fa 774B     		ldr	r3, .L40+56
 367 00fc 1868     		ldr	r0, [r3]
 368 00fe FFF7FEFF 		bl	DJIMotorStop
 369              	.LVL19:
  89:application/shoot/shoot.c ****         default:
 370              		.loc 1 89 13 view .LVU100
 371 0102 F1E7     		b	.L9
 372              	.L37:
 106:application/shoot/shoot.c ****             // å³åŽæ‘©æ“¦è½®
 373              		.loc 1 106 13 view .LVU101
 374 0104 734B     		ldr	r3, .L40+52
 375 0106 1868     		ldr	r0, [r3]
 376 0108 FFF7FEFF 		bl	DJIMotorEnable
 377              	.LVL20:
 108:application/shoot/shoot.c ****             break;
 378              		.loc 1 108 13 view .LVU102
 379 010c 724B     		ldr	r3, .L40+56
 380 010e 1868     		ldr	r0, [r3]
 381 0110 FFF7FEFF 		bl	DJIMotorEnable
 382              	.LVL21:
 109:application/shoot/shoot.c ****         default:
 383              		.loc 1 109 13 view .LVU103
 384 0114 8DE7     		b	.L11
 385              	.L25:
 139:application/shoot/shoot.c ****     {
 140:application/shoot/shoot.c ****     // åœæ­¢æ‹¨ç›˜
 141:application/shoot/shoot.c ****     case LOAD_STOP:
 142:application/shoot/shoot.c ****         DJIMotorOuterLoop(loader, SPEED_LOOP); // åˆ‡æ¢åˆ°é€Ÿåº¦çŽ¯
 386              		.loc 1 142 9 view .LVU104
 387 0116 694C     		ldr	r4, .L40+28
 388 0118 0221     		movs	r1, #2
 389 011a 2068     		ldr	r0, [r4]
 390 011c FFF7FEFF 		bl	DJIMotorOuterLoop
 391              	.LVL22:
 143:application/shoot/shoot.c ****         DJIMotorSetRef(loader, 0);             // åŒæ—¶è®¾å®šå‚è€ƒå€¼ä¸º0,è¿™æ ·åœæ­¢çš„é€Ÿåº¦æœ
 392              		.loc 1 143 9 view .LVU105
 393 0120 9FED6E8A 		vldr.32	s16, .L40+60
 394 0124 B0EE480A 		vmov.f32	s0, s16
ARM GAS  C:\Users\lenovo\AppData\Local\Temp\cc9xEv65.s 			page 11


 395 0128 2068     		ldr	r0, [r4]
 396 012a FFF7FEFF 		bl	DJIMotorSetRef
 397              	.LVL23:
 144:application/shoot/shoot.c ****         lock_time = 0;
 398              		.loc 1 144 9 view .LVU106
 399              		.loc 1 144 19 is_stmt 0 view .LVU107
 400 012e 644B     		ldr	r3, .L40+32
 401 0130 83ED008A 		vstr.32	s16, [r3]
 145:application/shoot/shoot.c ****         break;
 402              		.loc 1 145 9 is_stmt 1 view .LVU108
 403              	.L19:
 146:application/shoot/shoot.c ****     // å•å‘æ¨¡å¼,æ ¹æ®é¼ æ ‡æŒ‰ä¸‹çš„æ—¶é—´,è§¦å‘ä¸€æ¬¡ä¹‹åŽéœ€è¦è¿›å…¥ä¸å“åº”è¾“å…¥çš„çŠ¶
 147:application/shoot/shoot.c ****     case LOAD_1_BULLET:                                                                     // æ¿€æ
 148:application/shoot/shoot.c ****         // åˆ‡æ¢åˆ°è§’åº¦çŽ¯
 149:application/shoot/shoot.c ****         DJIMotorOuterLoop(loader, ANGLE_LOOP);                                              
 150:application/shoot/shoot.c ****         // æŽ§åˆ¶é‡å¢žåŠ ä¸€å‘å¼¹ä¸¸çš„è§’åº¦
 151:application/shoot/shoot.c ****         DJIMotorSetRef(loader, loader->measure.total_angle  + ONE_BULLET_DELTA_ANGLE * REDUCTION_RA
 152:application/shoot/shoot.c ****         hibernate_time = DWT_GetTimeline_ms();                                              // è®°å
 153:application/shoot/shoot.c ****         dead_time = 300;                                                                    // å®Œæ
 154:application/shoot/shoot.c ****         break;
 155:application/shoot/shoot.c ****     // ä¸‰è¿žå‘
 156:application/shoot/shoot.c ****     case LOAD_3_BULLET:
 157:application/shoot/shoot.c ****         DJIMotorOuterLoop(loader, ANGLE_LOOP);                         
 158:application/shoot/shoot.c ****         DJIMotorSetRef(loader, loader->measure.total_angle + 5.0f * ONE_BULLET_DELTA_ANGLE * REDUCT
 159:application/shoot/shoot.c ****         hibernate_time = DWT_GetTimeline_ms();                                                 // è
 160:application/shoot/shoot.c ****         dead_time = 1200;                                                                       // 
 161:application/shoot/shoot.c ****         break;
 162:application/shoot/shoot.c ****     // è¿žå‘æ¨¡å¼,å¯¹é€Ÿåº¦é—­çŽ¯,å°„é¢‘åŽç»­ä¿®æ”¹ä¸ºå¯å˜,ç›®å‰å›ºå®šä¸º1Hz
 163:application/shoot/shoot.c ****     case LOAD_BURSTFIRE:
 164:application/shoot/shoot.c ****         DJIMotorOuterLoop(loader, SPEED_LOOP);
 165:application/shoot/shoot.c ****         DJIMotorSetRef(loader, shoot_cmd_recv.shoot_rate * 360 * REDUCTION_RATIO_LOADER / 8);
 166:application/shoot/shoot.c ****         // xé¢—/ç§’æ¢ç®—æˆé€Ÿåº¦: å·²çŸ¥ä¸€åœˆçš„è½½å¼¹é‡,ç”±æ­¤è®¡ç®—å‡º1séœ€è¦è½¬çš„è§’åº¦,æ³
 167:application/shoot/shoot.c ****         break;
 168:application/shoot/shoot.c ****     // æ‹¨ç›˜åè½¬,å¯¹é€Ÿåº¦é—­çŽ¯
 169:application/shoot/shoot.c ****     case LOAD_REVERSE:
 170:application/shoot/shoot.c ****         DJIMotorOuterLoop(loader, SPEED_LOOP);
 171:application/shoot/shoot.c ****         DJIMotorSetRef(loader, -shoot_cmd_recv.shoot_rate * 360 * 12 / 8);
 172:application/shoot/shoot.c ****         break;
 173:application/shoot/shoot.c ****     default:
 174:application/shoot/shoot.c ****         break;
 175:application/shoot/shoot.c ****         // while (1)
 176:application/shoot/shoot.c ****         //     ; // æœªçŸ¥æ¨¡å¼,åœæ­¢è¿è¡Œ,æ£€æŸ¥æŒ‡é’ˆè¶Šç•Œ,å†…å­˜æº¢å‡ºç­‰é—®é¢˜
 177:application/shoot/shoot.c ****     }
 178:application/shoot/shoot.c **** 
 179:application/shoot/shoot.c ****     // ç¡®å®šæ˜¯å¦å¼€å¯æ‘©æ“¦è½®
 180:application/shoot/shoot.c ****     if (shoot_cmd_recv.friction_mode == FRICTION_ON)
 404              		.loc 1 180 5 view .LVU109
 405              		.loc 1 180 23 is_stmt 0 view .LVU110
 406 0134 5C4B     		ldr	r3, .L40+8
 407 0136 DB78     		ldrb	r3, [r3, #3]	@ zero_extendqisi2
 408              		.loc 1 180 8 view .LVU111
 409 0138 012B     		cmp	r3, #1
 410 013a 40F02581 		bne	.L26
 181:application/shoot/shoot.c ****     {
 182:application/shoot/shoot.c ****         // æ ¹æ®æ”¶åˆ°çš„å¼¹é€Ÿè®¾ç½®è®¾å®šæ‘©æ“¦è½®ç”µæœºå‚è€ƒå€¼,éœ€å®žæµ‹åŽå¡«å…¥
 183:application/shoot/shoot.c ****         switch (shoot_cmd_recv.bullet_speed)
 411              		.loc 1 183 9 is_stmt 1 view .LVU112
ARM GAS  C:\Users\lenovo\AppData\Local\Temp\cc9xEv65.s 			page 12


 412              		.loc 1 183 31 is_stmt 0 view .LVU113
 413 013e 5A4B     		ldr	r3, .L40+8
 414 0140 1B79     		ldrb	r3, [r3, #4]	@ zero_extendqisi2
 415              		.loc 1 183 9 view .LVU114
 416 0142 122B     		cmp	r3, #18
 417 0144 00F08980 		beq	.L27
 418 0148 1E2B     		cmp	r3, #30
 419 014a 00F0DB80 		beq	.L28
 420 014e 0F2B     		cmp	r3, #15
 421 0150 40F0FA80 		bne	.L29
 184:application/shoot/shoot.c ****         {
 185:application/shoot/shoot.c ****         case SMALL_AMU_15:
 186:application/shoot/shoot.c ****             DJIMotorSetRef(friction_lf, 30000);
 422              		.loc 1 186 13 is_stmt 1 view .LVU115
 423 0154 9FED628A 		vldr.32	s16, .L40+64
 424 0158 B0EE480A 		vmov.f32	s0, s16
 425 015c 544B     		ldr	r3, .L40+16
 426 015e 1868     		ldr	r0, [r3]
 427 0160 FFF7FEFF 		bl	DJIMotorSetRef
 428              	.LVL24:
 187:application/shoot/shoot.c ****             DJIMotorSetRef(friction_rf, 30000);
 429              		.loc 1 187 13 view .LVU116
 430 0164 B0EE480A 		vmov.f32	s0, s16
 431 0168 524B     		ldr	r3, .L40+20
 432 016a 1868     		ldr	r0, [r3]
 433 016c FFF7FEFF 		bl	DJIMotorSetRef
 434              	.LVL25:
 188:application/shoot/shoot.c ****             switch (shoot_config->shoot_type)
 435              		.loc 1 188 13 view .LVU117
 436              		.loc 1 188 33 is_stmt 0 view .LVU118
 437 0170 514B     		ldr	r3, .L40+24
 438 0172 1B68     		ldr	r3, [r3]
 439 0174 1B78     		ldrb	r3, [r3]	@ zero_extendqisi2
 440              		.loc 1 188 13 view .LVU119
 441 0176 022B     		cmp	r3, #2
 442 0178 40F01981 		bne	.L30
 189:application/shoot/shoot.c ****             {
 190:application/shoot/shoot.c ****             case THREE_SHOOT:
 191:application/shoot/shoot.c ****                 break;
 192:application/shoot/shoot.c ****             case FOUR_SHOOT:
 193:application/shoot/shoot.c ****                 // å·¦åŽæ‘©æ“¦è½®
 194:application/shoot/shoot.c ****                 DJIMotorSetRef(friction_lb, 30000);
 443              		.loc 1 194 17 is_stmt 1 view .LVU120
 444 017c B0EE480A 		vmov.f32	s0, s16
 445 0180 544B     		ldr	r3, .L40+52
 446 0182 1868     		ldr	r0, [r3]
 447 0184 FFF7FEFF 		bl	DJIMotorSetRef
 448              	.LVL26:
 195:application/shoot/shoot.c ****                 // å³åŽæ‘©æ“¦è½®
 196:application/shoot/shoot.c ****                 DJIMotorSetRef(friction_rb, 30000);  
 449              		.loc 1 196 17 view .LVU121
 450 0188 B0EE480A 		vmov.f32	s0, s16
 451 018c 524B     		ldr	r3, .L40+56
 452 018e 1868     		ldr	r0, [r3]
 453 0190 FFF7FEFF 		bl	DJIMotorSetRef
 454              	.LVL27:
 197:application/shoot/shoot.c ****                 break;
ARM GAS  C:\Users\lenovo\AppData\Local\Temp\cc9xEv65.s 			page 13


 455              		.loc 1 197 17 view .LVU122
 456 0194 0BE1     		b	.L30
 457              	.L23:
 149:application/shoot/shoot.c ****         // æŽ§åˆ¶é‡å¢žåŠ ä¸€å‘å¼¹ä¸¸çš„è§’åº¦
 458              		.loc 1 149 9 view .LVU123
 459 0196 494C     		ldr	r4, .L40+28
 460 0198 0421     		movs	r1, #4
 461 019a 2068     		ldr	r0, [r4]
 462 019c FFF7FEFF 		bl	DJIMotorOuterLoop
 463              	.LVL28:
 151:application/shoot/shoot.c ****         hibernate_time = DWT_GetTimeline_ms();                                              // è®°å
 464              		.loc 1 151 9 view .LVU124
 465 01a0 2068     		ldr	r0, [r4]
 151:application/shoot/shoot.c ****         hibernate_time = DWT_GetTimeline_ms();                                              // è®°å
 466              		.loc 1 151 47 is_stmt 0 view .LVU125
 467 01a2 90ED040A 		vldr.32	s0, [r0, #16]
 151:application/shoot/shoot.c ****         hibernate_time = DWT_GetTimeline_ms();                                              // è®°å
 468              		.loc 1 151 9 view .LVU126
 469 01a6 DFED4F7A 		vldr.32	s15, .L40+68
 470 01aa 30EE270A 		vadd.f32	s0, s0, s15
 471 01ae FFF7FEFF 		bl	DJIMotorSetRef
 472              	.LVL29:
 152:application/shoot/shoot.c ****         dead_time = 300;                                                                    // å®Œæ
 473              		.loc 1 152 9 is_stmt 1 view .LVU127
 152:application/shoot/shoot.c ****         dead_time = 300;                                                                    // å®Œæ
 474              		.loc 1 152 26 is_stmt 0 view .LVU128
 475 01b2 FFF7FEFF 		bl	DWT_GetTimeline_ms
 476              	.LVL30:
 152:application/shoot/shoot.c ****         dead_time = 300;                                                                    // å®Œæ
 477              		.loc 1 152 24 discriminator 1 view .LVU129
 478 01b6 464B     		ldr	r3, .L40+48
 479 01b8 83ED000A 		vstr.32	s0, [r3]
 153:application/shoot/shoot.c ****         break;
 480              		.loc 1 153 9 is_stmt 1 view .LVU130
 153:application/shoot/shoot.c ****         break;
 481              		.loc 1 153 19 is_stmt 0 view .LVU131
 482 01bc 424B     		ldr	r3, .L40+40
 483 01be 4A4A     		ldr	r2, .L40+72
 484 01c0 1A60     		str	r2, [r3]	@ float
 154:application/shoot/shoot.c ****     // ä¸‰è¿žå‘
 485              		.loc 1 154 9 is_stmt 1 view .LVU132
 486 01c2 B7E7     		b	.L19
 487              	.L22:
 157:application/shoot/shoot.c ****         DJIMotorSetRef(loader, loader->measure.total_angle + 5.0f * ONE_BULLET_DELTA_ANGLE * REDUCT
 488              		.loc 1 157 9 view .LVU133
 489 01c4 3D4C     		ldr	r4, .L40+28
 490 01c6 0421     		movs	r1, #4
 491 01c8 2068     		ldr	r0, [r4]
 492 01ca FFF7FEFF 		bl	DJIMotorOuterLoop
 493              	.LVL31:
 158:application/shoot/shoot.c ****         hibernate_time = DWT_GetTimeline_ms();                                                 // è
 494              		.loc 1 158 9 view .LVU134
 495 01ce 2068     		ldr	r0, [r4]
 158:application/shoot/shoot.c ****         hibernate_time = DWT_GetTimeline_ms();                                                 // è
 496              		.loc 1 158 47 is_stmt 0 view .LVU135
 497 01d0 90ED040A 		vldr.32	s0, [r0, #16]
 158:application/shoot/shoot.c ****         hibernate_time = DWT_GetTimeline_ms();                                                 // è
ARM GAS  C:\Users\lenovo\AppData\Local\Temp\cc9xEv65.s 			page 14


 498              		.loc 1 158 9 view .LVU136
 499 01d4 DFED457A 		vldr.32	s15, .L40+76
 500 01d8 30EE270A 		vadd.f32	s0, s0, s15
 501 01dc FFF7FEFF 		bl	DJIMotorSetRef
 502              	.LVL32:
 159:application/shoot/shoot.c ****         dead_time = 1200;                                                                       // 
 503              		.loc 1 159 9 is_stmt 1 view .LVU137
 159:application/shoot/shoot.c ****         dead_time = 1200;                                                                       // 
 504              		.loc 1 159 26 is_stmt 0 view .LVU138
 505 01e0 FFF7FEFF 		bl	DWT_GetTimeline_ms
 506              	.LVL33:
 159:application/shoot/shoot.c ****         dead_time = 1200;                                                                       // 
 507              		.loc 1 159 24 discriminator 1 view .LVU139
 508 01e4 3A4B     		ldr	r3, .L40+48
 509 01e6 83ED000A 		vstr.32	s0, [r3]
 160:application/shoot/shoot.c ****         break;
 510              		.loc 1 160 9 is_stmt 1 view .LVU140
 160:application/shoot/shoot.c ****         break;
 511              		.loc 1 160 19 is_stmt 0 view .LVU141
 512 01ea 374B     		ldr	r3, .L40+40
 513 01ec 404A     		ldr	r2, .L40+80
 514 01ee 1A60     		str	r2, [r3]	@ float
 161:application/shoot/shoot.c ****     // è¿žå‘æ¨¡å¼,å¯¹é€Ÿåº¦é—­çŽ¯,å°„é¢‘åŽç»­ä¿®æ”¹ä¸ºå¯å˜,ç›®å‰å›ºå®šä¸º1Hz
 515              		.loc 1 161 9 is_stmt 1 view .LVU142
 516 01f0 A0E7     		b	.L19
 517              	.L20:
 164:application/shoot/shoot.c ****         DJIMotorSetRef(loader, shoot_cmd_recv.shoot_rate * 360 * REDUCTION_RATIO_LOADER / 8);
 518              		.loc 1 164 9 view .LVU143
 519 01f2 324C     		ldr	r4, .L40+28
 520 01f4 0221     		movs	r1, #2
 521 01f6 2068     		ldr	r0, [r4]
 522 01f8 FFF7FEFF 		bl	DJIMotorOuterLoop
 523              	.LVL34:
 165:application/shoot/shoot.c ****         // xé¢—/ç§’æ¢ç®—æˆé€Ÿåº¦: å·²çŸ¥ä¸€åœˆçš„è½½å¼¹é‡,ç”±æ­¤è®¡ç®—å‡º1séœ€è¦è½¬çš„è§’åº¦,æ³
 524              		.loc 1 165 9 view .LVU144
 165:application/shoot/shoot.c ****         // xé¢—/ç§’æ¢ç®—æˆé€Ÿåº¦: å·²çŸ¥ä¸€åœˆçš„è½½å¼¹é‡,ç”±æ­¤è®¡ç®—å‡º1séœ€è¦è½¬çš„è§’åº¦,æ³
 525              		.loc 1 165 46 is_stmt 0 view .LVU145
 526 01fc 2A4B     		ldr	r3, .L40+8
 527 01fe D3F80630 		ldr	r3, [r3, #6]	@ unaligned
 528 0202 07EE903A 		vmov	s15, r3	@ int
 165:application/shoot/shoot.c ****         // xé¢—/ç§’æ¢ç®—æˆé€Ÿåº¦: å·²çŸ¥ä¸€åœˆçš„è½½å¼¹é‡,ç”±æ­¤è®¡ç®—å‡º1séœ€è¦è½¬çš„è§’åº¦,æ³
 529              		.loc 1 165 58 view .LVU146
 530 0206 9FED3B7A 		vldr.32	s14, .L40+84
 531 020a 67EE877A 		vmul.f32	s15, s15, s14
 165:application/shoot/shoot.c ****         // xé¢—/ç§’æ¢ç®—æˆé€Ÿåº¦: å·²çŸ¥ä¸€åœˆçš„è½½å¼¹é‡,ç”±æ­¤è®¡ç®—å‡º1séœ€è¦è½¬çš„è§’åº¦,æ³
 532              		.loc 1 165 64 view .LVU147
 533 020e 9FED3A7A 		vldr.32	s14, .L40+88
 534 0212 67EE877A 		vmul.f32	s15, s15, s14
 165:application/shoot/shoot.c ****         // xé¢—/ç§’æ¢ç®—æˆé€Ÿåº¦: å·²çŸ¥ä¸€åœˆçš„è½½å¼¹é‡,ç”±æ­¤è®¡ç®—å‡º1séœ€è¦è½¬çš„è§’åº¦,æ³
 535              		.loc 1 165 9 view .LVU148
 536 0216 B4EE000A 		vmov.f32	s0, #1.25e-1
 537 021a 27EE800A 		vmul.f32	s0, s15, s0
 538 021e 2068     		ldr	r0, [r4]
 539 0220 FFF7FEFF 		bl	DJIMotorSetRef
 540              	.LVL35:
 167:application/shoot/shoot.c ****     // æ‹¨ç›˜åè½¬,å¯¹é€Ÿåº¦é—­çŽ¯
 541              		.loc 1 167 9 is_stmt 1 view .LVU149
ARM GAS  C:\Users\lenovo\AppData\Local\Temp\cc9xEv65.s 			page 15


 542 0224 86E7     		b	.L19
 543              	.L24:
 170:application/shoot/shoot.c ****         DJIMotorSetRef(loader, -shoot_cmd_recv.shoot_rate * 360 * 12 / 8);
 544              		.loc 1 170 9 view .LVU150
 545 0226 254C     		ldr	r4, .L40+28
 546 0228 0221     		movs	r1, #2
 547 022a 2068     		ldr	r0, [r4]
 548 022c FFF7FEFF 		bl	DJIMotorOuterLoop
 549              	.LVL36:
 171:application/shoot/shoot.c ****         break;
 550              		.loc 1 171 9 view .LVU151
 171:application/shoot/shoot.c ****         break;
 551              		.loc 1 171 47 is_stmt 0 view .LVU152
 552 0230 1D4B     		ldr	r3, .L40+8
 553 0232 D3F80630 		ldr	r3, [r3, #6]	@ unaligned
 554 0236 07EE903A 		vmov	s15, r3	@ int
 171:application/shoot/shoot.c ****         break;
 555              		.loc 1 171 59 view .LVU153
 556 023a 9FED2E7A 		vldr.32	s14, .L40+84
 557 023e 67EEC77A 		vnmul.f32	s15, s15, s14
 171:application/shoot/shoot.c ****         break;
 558              		.loc 1 171 65 view .LVU154
 559 0242 B2EE087A 		vmov.f32	s14, #1.2e+1
 560 0246 67EE877A 		vmul.f32	s15, s15, s14
 171:application/shoot/shoot.c ****         break;
 561              		.loc 1 171 9 view .LVU155
 562 024a B4EE000A 		vmov.f32	s0, #1.25e-1
 563 024e 27EE800A 		vmul.f32	s0, s15, s0
 564 0252 2068     		ldr	r0, [r4]
 565 0254 FFF7FEFF 		bl	DJIMotorSetRef
 566              	.LVL37:
 172:application/shoot/shoot.c ****     default:
 567              		.loc 1 172 9 is_stmt 1 view .LVU156
 568 0258 6CE7     		b	.L19
 569              	.L27:
 198:application/shoot/shoot.c ****             default:
 199:application/shoot/shoot.c ****                 break;
 200:application/shoot/shoot.c ****             }
 201:application/shoot/shoot.c ****             break;
 202:application/shoot/shoot.c ****         case SMALL_AMU_18:
 203:application/shoot/shoot.c ****             DJIMotorSetRef(friction_lf, 35000);
 570              		.loc 1 203 13 view .LVU157
 571 025a 9FED288A 		vldr.32	s16, .L40+92
 572 025e B0EE480A 		vmov.f32	s0, s16
 573 0262 134B     		ldr	r3, .L40+16
 574 0264 1868     		ldr	r0, [r3]
 575 0266 FFF7FEFF 		bl	DJIMotorSetRef
 576              	.LVL38:
 204:application/shoot/shoot.c ****             DJIMotorSetRef(friction_rf, 35000);
 577              		.loc 1 204 13 view .LVU158
 578 026a B0EE480A 		vmov.f32	s0, s16
 579 026e 114B     		ldr	r3, .L40+20
 580 0270 1868     		ldr	r0, [r3]
 581 0272 FFF7FEFF 		bl	DJIMotorSetRef
 582              	.LVL39:
 205:application/shoot/shoot.c ****             switch (shoot_config->shoot_type)
 583              		.loc 1 205 13 view .LVU159
ARM GAS  C:\Users\lenovo\AppData\Local\Temp\cc9xEv65.s 			page 16


 584              		.loc 1 205 33 is_stmt 0 view .LVU160
 585 0276 104B     		ldr	r3, .L40+24
 586 0278 1B68     		ldr	r3, [r3]
 587 027a 1B78     		ldrb	r3, [r3]	@ zero_extendqisi2
 588              		.loc 1 205 13 view .LVU161
 589 027c 022B     		cmp	r3, #2
 590 027e 40F09680 		bne	.L30
 206:application/shoot/shoot.c ****             {
 207:application/shoot/shoot.c ****             case THREE_SHOOT:
 208:application/shoot/shoot.c ****                 break;
 209:application/shoot/shoot.c ****             case FOUR_SHOOT:
 210:application/shoot/shoot.c ****                 // å·¦åŽæ‘©æ“¦è½®
 211:application/shoot/shoot.c ****                 DJIMotorSetRef(friction_lb, 35000);
 591              		.loc 1 211 17 is_stmt 1 view .LVU162
 592 0282 B0EE480A 		vmov.f32	s0, s16
 593 0286 134B     		ldr	r3, .L40+52
 594 0288 1868     		ldr	r0, [r3]
 595 028a FFF7FEFF 		bl	DJIMotorSetRef
 596              	.LVL40:
 212:application/shoot/shoot.c ****                 // å³åŽæ‘©æ“¦è½®
 213:application/shoot/shoot.c ****                 DJIMotorSetRef(friction_rb, 35000);  
 597              		.loc 1 213 17 view .LVU163
 598 028e B0EE480A 		vmov.f32	s0, s16
 599 0292 114B     		ldr	r3, .L40+56
 600 0294 1868     		ldr	r0, [r3]
 601 0296 FFF7FEFF 		bl	DJIMotorSetRef
 602              	.LVL41:
 214:application/shoot/shoot.c ****                 break;
 603              		.loc 1 214 17 view .LVU164
 604 029a 88E0     		b	.L30
 605              	.L41:
 606 029c AFF30080 		.align	3
 607              	.L40:
 608 02a0 00000000 		.word	0
 609 02a4 0088B340 		.word	1085507584
 610 02a8 00000000 		.word	shoot_cmd_recv
 611 02ac 00000000 		.word	shoot_sub
 612 02b0 00000000 		.word	friction_lf
 613 02b4 00000000 		.word	friction_rf
 614 02b8 00000000 		.word	shoot_config
 615 02bc 00000000 		.word	loader
 616 02c0 00000000 		.word	lock_time
 617 02c4 0000C843 		.word	1137180672
 618 02c8 00000000 		.word	dead_time
 619 02cc 0080CA43 		.word	1137344512
 620 02d0 00000000 		.word	hibernate_time
 621 02d4 00000000 		.word	friction_lb
 622 02d8 00000000 		.word	friction_rb
 623 02dc 00000000 		.word	0
 624 02e0 0060EA46 		.word	1189765120
 625 02e4 00000744 		.word	1141309440
 626 02e8 00009643 		.word	1133903872
 627 02ec 00C02845 		.word	1160298496
 628 02f0 00009644 		.word	1150681088
 629 02f4 0000B443 		.word	1135869952
 630 02f8 00001042 		.word	1108344832
 631 02fc 00B80847 		.word	1191753728
ARM GAS  C:\Users\lenovo\AppData\Local\Temp\cc9xEv65.s 			page 17


 632 0300 00504347 		.word	1195593728
 633              	.L28:
 215:application/shoot/shoot.c ****             default:
 216:application/shoot/shoot.c ****                 break;
 217:application/shoot/shoot.c ****             }
 218:application/shoot/shoot.c ****             break;
 219:application/shoot/shoot.c ****         case SMALL_AMU_30:
 220:application/shoot/shoot.c ****             DJIMotorSetRef(friction_lf, 50000);
 634              		.loc 1 220 13 view .LVU165
 635 0304 1FED028A 		vldr.32	s16, .L40+96
 636 0308 B0EE480A 		vmov.f32	s0, s16
 637 030c 324B     		ldr	r3, .L42
 638 030e 1868     		ldr	r0, [r3]
 639 0310 FFF7FEFF 		bl	DJIMotorSetRef
 640              	.LVL42:
 221:application/shoot/shoot.c ****             DJIMotorSetRef(friction_rf, 50000);
 641              		.loc 1 221 13 view .LVU166
 642 0314 B0EE480A 		vmov.f32	s0, s16
 643 0318 304B     		ldr	r3, .L42+4
 644 031a 1868     		ldr	r0, [r3]
 645 031c FFF7FEFF 		bl	DJIMotorSetRef
 646              	.LVL43:
 222:application/shoot/shoot.c ****             switch (shoot_config->shoot_type)
 647              		.loc 1 222 13 view .LVU167
 648              		.loc 1 222 33 is_stmt 0 view .LVU168
 649 0320 2F4B     		ldr	r3, .L42+8
 650 0322 1B68     		ldr	r3, [r3]
 651 0324 1B78     		ldrb	r3, [r3]	@ zero_extendqisi2
 652              		.loc 1 222 13 view .LVU169
 653 0326 022B     		cmp	r3, #2
 654 0328 41D1     		bne	.L30
 223:application/shoot/shoot.c ****             {
 224:application/shoot/shoot.c ****             case THREE_SHOOT:
 225:application/shoot/shoot.c ****                 break;
 226:application/shoot/shoot.c ****             case FOUR_SHOOT:
 227:application/shoot/shoot.c ****                 // å·¦åŽæ‘©æ“¦è½®
 228:application/shoot/shoot.c ****                 DJIMotorSetRef(friction_lb, 80000);
 655              		.loc 1 228 17 is_stmt 1 view .LVU170
 656 032a 9FED2E8A 		vldr.32	s16, .L42+12
 657 032e B0EE480A 		vmov.f32	s0, s16
 658 0332 2D4B     		ldr	r3, .L42+16
 659 0334 1868     		ldr	r0, [r3]
 660 0336 FFF7FEFF 		bl	DJIMotorSetRef
 661              	.LVL44:
 229:application/shoot/shoot.c ****                 // å³åŽæ‘©æ“¦è½®
 230:application/shoot/shoot.c ****                 DJIMotorSetRef(friction_rb, 80000);  
 662              		.loc 1 230 17 view .LVU171
 663 033a B0EE480A 		vmov.f32	s0, s16
 664 033e 2B4B     		ldr	r3, .L42+20
 665 0340 1868     		ldr	r0, [r3]
 666 0342 FFF7FEFF 		bl	DJIMotorSetRef
 667              	.LVL45:
 231:application/shoot/shoot.c ****                 break;
 668              		.loc 1 231 17 view .LVU172
 669 0346 32E0     		b	.L30
 670              	.L29:
 232:application/shoot/shoot.c ****             default:
ARM GAS  C:\Users\lenovo\AppData\Local\Temp\cc9xEv65.s 			page 18


 233:application/shoot/shoot.c ****                 break;
 234:application/shoot/shoot.c ****             }
 235:application/shoot/shoot.c ****             break;
 236:application/shoot/shoot.c ****         default: // å½“å‰ä¸ºäº†è°ƒè¯•è®¾å®šçš„é»˜è®¤å€¼4000,å› ä¸ºè¿˜æ²¡æœ‰åŠ å…¥è£åˆ¤ç³»ç»Ÿæ— æ³
 237:application/shoot/shoot.c ****             DJIMotorSetRef(friction_lf, 80000);
 671              		.loc 1 237 13 view .LVU173
 672 0348 9FED268A 		vldr.32	s16, .L42+12
 673 034c B0EE480A 		vmov.f32	s0, s16
 674 0350 214B     		ldr	r3, .L42
 675 0352 1868     		ldr	r0, [r3]
 676 0354 FFF7FEFF 		bl	DJIMotorSetRef
 677              	.LVL46:
 238:application/shoot/shoot.c ****             DJIMotorSetRef(friction_rf, 80000);
 678              		.loc 1 238 13 view .LVU174
 679 0358 B0EE480A 		vmov.f32	s0, s16
 680 035c 1F4B     		ldr	r3, .L42+4
 681 035e 1868     		ldr	r0, [r3]
 682 0360 FFF7FEFF 		bl	DJIMotorSetRef
 683              	.LVL47:
 239:application/shoot/shoot.c ****             switch (shoot_config->shoot_type)
 684              		.loc 1 239 13 view .LVU175
 685              		.loc 1 239 33 is_stmt 0 view .LVU176
 686 0364 1E4B     		ldr	r3, .L42+8
 687 0366 1B68     		ldr	r3, [r3]
 688 0368 1B78     		ldrb	r3, [r3]	@ zero_extendqisi2
 689              		.loc 1 239 13 view .LVU177
 690 036a 022B     		cmp	r3, #2
 691 036c 1FD1     		bne	.L30
 240:application/shoot/shoot.c ****             {
 241:application/shoot/shoot.c ****             case THREE_SHOOT:
 242:application/shoot/shoot.c ****                 break;
 243:application/shoot/shoot.c ****             case FOUR_SHOOT:
 244:application/shoot/shoot.c ****                 // å·¦åŽæ‘©æ“¦è½®
 245:application/shoot/shoot.c ****                 DJIMotorSetRef(friction_lb, 80000);
 692              		.loc 1 245 17 is_stmt 1 view .LVU178
 693 036e B0EE480A 		vmov.f32	s0, s16
 694 0372 1D4B     		ldr	r3, .L42+16
 695 0374 1868     		ldr	r0, [r3]
 696 0376 FFF7FEFF 		bl	DJIMotorSetRef
 697              	.LVL48:
 246:application/shoot/shoot.c ****                 // å³åŽæ‘©æ“¦è½®
 247:application/shoot/shoot.c ****                 DJIMotorSetRef(friction_rb, 80000);  
 698              		.loc 1 247 17 view .LVU179
 699 037a B0EE480A 		vmov.f32	s0, s16
 700 037e 1B4B     		ldr	r3, .L42+20
 701 0380 1868     		ldr	r0, [r3]
 702 0382 FFF7FEFF 		bl	DJIMotorSetRef
 703              	.LVL49:
 248:application/shoot/shoot.c ****                 break;
 704              		.loc 1 248 17 view .LVU180
 705 0386 12E0     		b	.L30
 706              	.L26:
 249:application/shoot/shoot.c ****             default:
 250:application/shoot/shoot.c ****                 break;
 251:application/shoot/shoot.c ****             }            
 252:application/shoot/shoot.c ****             break;
 253:application/shoot/shoot.c ****         }
ARM GAS  C:\Users\lenovo\AppData\Local\Temp\cc9xEv65.s 			page 19


 254:application/shoot/shoot.c ****     }
 255:application/shoot/shoot.c ****     else // å…³é—­æ‘©æ“¦è½®
 256:application/shoot/shoot.c ****     {
 257:application/shoot/shoot.c ****         DJIMotorSetRef(friction_lf, 0);
 707              		.loc 1 257 9 view .LVU181
 708 0388 9FED198A 		vldr.32	s16, .L42+24
 709 038c B0EE480A 		vmov.f32	s0, s16
 710 0390 114B     		ldr	r3, .L42
 711 0392 1868     		ldr	r0, [r3]
 712 0394 FFF7FEFF 		bl	DJIMotorSetRef
 713              	.LVL50:
 258:application/shoot/shoot.c ****         DJIMotorSetRef(friction_rf, 0);
 714              		.loc 1 258 9 view .LVU182
 715 0398 B0EE480A 		vmov.f32	s0, s16
 716 039c 0F4B     		ldr	r3, .L42+4
 717 039e 1868     		ldr	r0, [r3]
 718 03a0 FFF7FEFF 		bl	DJIMotorSetRef
 719              	.LVL51:
 259:application/shoot/shoot.c ****         switch (shoot_config->shoot_type)
 720              		.loc 1 259 9 view .LVU183
 721              		.loc 1 259 29 is_stmt 0 view .LVU184
 722 03a4 0E4B     		ldr	r3, .L42+8
 723 03a6 1B68     		ldr	r3, [r3]
 724 03a8 1B78     		ldrb	r3, [r3]	@ zero_extendqisi2
 725              		.loc 1 259 9 view .LVU185
 726 03aa 022B     		cmp	r3, #2
 727 03ac 07D0     		beq	.L39
 728              	.L30:
 260:application/shoot/shoot.c ****         {
 261:application/shoot/shoot.c ****         case THREE_SHOOT:
 262:application/shoot/shoot.c ****             break;
 263:application/shoot/shoot.c ****         case FOUR_SHOOT:
 264:application/shoot/shoot.c ****             // å·¦åŽæ‘©æ“¦è½®
 265:application/shoot/shoot.c ****             DJIMotorSetRef(friction_lb, 0);
 266:application/shoot/shoot.c ****             // å³åŽæ‘©æ“¦è½®
 267:application/shoot/shoot.c ****             DJIMotorSetRef(friction_rb, 0);  
 268:application/shoot/shoot.c ****             break;
 269:application/shoot/shoot.c ****         default:
 270:application/shoot/shoot.c ****             break;
 271:application/shoot/shoot.c ****         }            
 272:application/shoot/shoot.c ****     }
 273:application/shoot/shoot.c **** 
 274:application/shoot/shoot.c ****     // å¼€å…³å¼¹èˆ±ç›–
 275:application/shoot/shoot.c ****     if (shoot_cmd_recv.lid_mode == LID_CLOSE)
 729              		.loc 1 275 5 is_stmt 1 view .LVU186
 276:application/shoot/shoot.c ****     {
 277:application/shoot/shoot.c ****         //...
 278:application/shoot/shoot.c ****     }
 279:application/shoot/shoot.c ****     else if (shoot_cmd_recv.lid_mode == LID_OPEN)
 730              		.loc 1 279 10 view .LVU187
 280:application/shoot/shoot.c ****     {
 281:application/shoot/shoot.c ****         //...
 282:application/shoot/shoot.c ****     }
 731              		.loc 1 282 5 view .LVU188
 283:application/shoot/shoot.c **** 
 284:application/shoot/shoot.c ****     // åé¦ˆæ•°æ®,ç›®å‰æš‚æ—¶æ²¡æœ‰è¦è®¾å®šçš„åé¦ˆæ•°æ®,åŽç»­å¯èƒ½å¢žåŠ åº”ç”¨ç¦»çº¿ç›‘æµ‹
 285:application/shoot/shoot.c ****     PubPushMessage(shoot_pub, (void *)&shoot_feedback_data);
ARM GAS  C:\Users\lenovo\AppData\Local\Temp\cc9xEv65.s 			page 20


 732              		.loc 1 285 5 view .LVU189
 733 03ae 1149     		ldr	r1, .L42+28
 734 03b0 114B     		ldr	r3, .L42+32
 735 03b2 1868     		ldr	r0, [r3]
 736 03b4 FFF7FEFF 		bl	PubPushMessage
 737              	.LVL52:
 738              	.L7:
 286:application/shoot/shoot.c **** }...
 739              		.loc 1 286 1 is_stmt 0 view .LVU190
 740 03b8 BDEC028B 		vldm	sp!, {d8}
 741              	.LCFI3:
 742              		.cfi_remember_state
 743              		.cfi_restore 80
 744              		.cfi_restore 81
 745              		.cfi_def_cfa_offset 8
 746 03bc 10BD     		pop	{r4, pc}
 747              	.L39:
 748              	.LCFI4:
 749              		.cfi_restore_state
 265:application/shoot/shoot.c ****             DJIMotorSetRef(friction_lb, 0);
 750              		.loc 1 265 13 is_stmt 1 view .LVU191
 751 03be B0EE480A 		vmov.f32	s0, s16
 752 03c2 094B     		ldr	r3, .L42+16
 753 03c4 1868     		ldr	r0, [r3]
 754 03c6 FFF7FEFF 		bl	DJIMotorSetRef
 755              	.LVL53:
 267:application/shoot/shoot.c ****             DJIMotorSetRef(friction_rb, 0);  
 756              		.loc 1 267 13 view .LVU192
 757 03ca B0EE480A 		vmov.f32	s0, s16
 758 03ce 074B     		ldr	r3, .L42+20
 759 03d0 1868     		ldr	r0, [r3]
 760 03d2 FFF7FEFF 		bl	DJIMotorSetRef
 761              	.LVL54:
 268:application/shoot/shoot.c ****             break;
 762              		.loc 1 268 13 view .LVU193
 763 03d6 EAE7     		b	.L30
 764              	.L43:
 765              		.align	2
 766              	.L42:
 767 03d8 00000000 		.word	friction_lf
 768 03dc 00000000 		.word	friction_rf
 769 03e0 00000000 		.word	shoot_config
 770 03e4 00409C47 		.word	1201422336
 771 03e8 00000000 		.word	friction_lb
 772 03ec 00000000 		.word	friction_rb
 773 03f0 00000000 		.word	0
 774 03f4 00000000 		.word	shoot_feedback_data
 775 03f8 00000000 		.word	shoot_pub
 776              		.cfi_endproc
 777              	.LFE272:
 779              		.section	.bss.lock_time,"aw",%nobits
 780              		.align	2
 783              	lock_time:
 784 0000 00000000 		.space	4
 785              		.section	.bss.dead_time,"aw",%nobits
 786              		.align	2
 789              	dead_time:
ARM GAS  C:\Users\lenovo\AppData\Local\Temp\cc9xEv65.s 			page 21


 790 0000 00000000 		.space	4
 791              		.section	.bss.hibernate_time,"aw",%nobits
 792              		.align	2
 795              	hibernate_time:
 796 0000 00000000 		.space	4
 797              		.section	.bss.shoot_feedback_data,"aw",%nobits
 798              		.align	2
 801              	shoot_feedback_data:
 802              		.section	.bss.shoot_sub,"aw",%nobits
 803              		.align	2
 806              	shoot_sub:
 807 0000 00000000 		.space	4
 808              		.section	.bss.shoot_cmd_recv,"aw",%nobits
 809              		.align	2
 812              	shoot_cmd_recv:
 813 0000 00000000 		.space	10
 813      00000000 
 813      0000
 814              		.section	.bss.shoot_pub,"aw",%nobits
 815              		.align	2
 818              	shoot_pub:
 819 0000 00000000 		.space	4
 820              		.section	.bss.friction_rb,"aw",%nobits
 821              		.align	2
 824              	friction_rb:
 825 0000 00000000 		.space	4
 826              		.section	.bss.friction_lb,"aw",%nobits
 827              		.align	2
 830              	friction_lb:
 831 0000 00000000 		.space	4
 832              		.section	.bss.loader,"aw",%nobits
 833              		.align	2
 836              	loader:
 837 0000 00000000 		.space	4
 838              		.section	.bss.friction_rf,"aw",%nobits
 839              		.align	2
 842              	friction_rf:
 843 0000 00000000 		.space	4
 844              		.section	.bss.friction_lf,"aw",%nobits
 845              		.align	2
 848              	friction_lf:
 849 0000 00000000 		.space	4
 850              		.section	.bss.shoot_config,"aw",%nobits
 851              		.align	2
 854              	shoot_config:
 855 0000 00000000 		.space	4
 856              		.text
 857              	.Letext0:
 858              		.file 2 "D:/msys2/mingw64/arm-none-eabi/include/machine/_default_types.h"
 859              		.file 3 "D:/msys2/mingw64/arm-none-eabi/include/sys/_stdint.h"
 860              		.file 4 "Drivers/CMSIS/Device/ST/STM32F4xx/Include/stm32f407xx.h"
 861              		.file 5 "Drivers/CMSIS/Device/ST/STM32F4xx/Include/stm32f4xx.h"
 862              		.file 6 "Drivers/STM32F4xx_HAL_Driver/Inc/stm32f4xx_hal_can.h"
 863              		.file 7 "modules/master_machine/master_process.h"
 864              		.file 8 "bsp/can/bsp_can.h"
 865              		.file 9 "modules/algorithm/controller.h"
 866              		.file 10 "modules/motor/motor_def.h"
ARM GAS  C:\Users\lenovo\AppData\Local\Temp\cc9xEv65.s 			page 22


 867              		.file 11 "application/config/config.h"
 868              		.file 12 "application/robot_def.h"
 869              		.file 13 "modules/daemon/daemon.h"
 870              		.file 14 "modules/motor/DJImotor/dji_motor.h"
 871              		.file 15 "modules/message_center/message_center.h"
 872              		.file 16 "bsp/dwt/bsp_dwt.h"
ARM GAS  C:\Users\lenovo\AppData\Local\Temp\cc9xEv65.s 			page 23

